; Function Attrs: mustprogress uwtable
define hidden void @_ZN10params_refC2ERKS_(ptr nocapture noundef nonnull align 8 dereferenceable(8) %this, ptr nocapture noundef nonnull readonly align 8 dereferenceable(8) %p) unnamed_addr #3 align 2 personality ptr @__gxx_personality_v0 {
entry:
  store ptr null, ptr %this, align 8
  %0 = load ptr, ptr %p, align 8
  %tobool.not.i = icmp eq ptr %0, null
  br i1 %tobool.not.i, label %_ZN10params_ref3setERKS_.exit, label %if.end.i

if.end.i:                                         ; preds = %entry
  %m_ref_count.i.i = getelementptr inbounds i8, ptr %0, i64 8
  %1 = atomicrmw add ptr %m_ref_count.i.i, i32 1 seq_cst, align 4
  %.pr = load ptr, ptr %this, align 8
  %tobool4.not.i = icmp eq ptr %.pr, null
  br i1 %tobool4.not.i, label %_ZN10params_ref3setERKS_.exit, label %if.then5.i

if.then5.i:                                       ; preds = %if.end.i
  %m_ref_count.i4.i = getelementptr inbounds i8, ptr %.pr, i64 8
  %2 = atomicrmw sub ptr %m_ref_count.i4.i, i32 1 seq_cst, align 4
  %cmp.i.i = icmp eq i32 %2, 1
  br i1 %cmp.i.i, label %if.then.i.i, label %_ZN10params_ref3setERKS_.exit

if.then.i.i:                                      ; preds = %if.then5.i
  invoke void @_ZN6params5resetEv(ptr noundef nonnull align 8 dereferenceable(12) %.pr)
          to label %invoke.cont.i.i.i.i unwind label %terminate.lpad.i.i.i.i

invoke.cont.i.i.i.i:                              ; preds = %if.then.i.i
  %3 = load ptr, ptr %.pr, align 8
  %tobool.not.i.i.i.i.i.i.i = icmp eq ptr %3, null
  br i1 %tobool.not.i.i.i.i.i.i.i, label %_Z7deallocI6paramsEvPT_.exit.i.i, label %if.then.i.i.i.i.i.i.i

if.then.i.i.i.i.i.i.i:                            ; preds = %invoke.cont.i.i.i.i
  %add.ptr.i.i.i.i.i.i.i.i = getelementptr inbounds i8, ptr %3, i64 -8
  invoke void @_ZN6memory10deallocateEPv(ptr noundef nonnull %add.ptr.i.i.i.i.i.i.i.i)
          to label %_Z7deallocI6paramsEvPT_.exit.i.i unwind label %terminate.lpad.i.i.i.i.i.i

terminate.lpad.i.i.i.i.i.i:                       ; preds = %if.then.i.i.i.i.i.i.i
  %4 = landingpad { ptr, i32 }
          catch ptr null
  %5 = extractvalue { ptr, i32 } %4, 0
  tail call void @__clang_call_terminate(ptr %5) #17
  unreachable

terminate.lpad.i.i.i.i:                           ; preds = %if.then.i.i
  %6 = landingpad { ptr, i32 }
          catch ptr null
  %7 = extractvalue { ptr, i32 } %6, 0
  tail call void @__clang_call_terminate(ptr %7) #17
  unreachable

_Z7deallocI6paramsEvPT_.exit.i.i:                 ; preds = %if.then.i.i.i.i.i.i.i, %invoke.cont.i.i.i.i
  tail call void @_ZN6memory10deallocateEPv(ptr noundef nonnull %.pr)
  br label %_ZN10params_ref3setERKS_.exit

_ZN10params_ref3setERKS_.exit:                    ; preds = %entry, %if.end.i, %if.then5.i, %_Z7deallocI6paramsEvPT_.exit.i.i
  %8 = load ptr, ptr %p, align 8
  store ptr %8, ptr %this, align 8
  ret void
}